target datalayout = "e-m:e-p270:32:32-p271:32:32-p272:64:64-i64:64-i128:128-f80:128-n8:16:32:64-S128"
target triple = "x86_64-pc-linux-gnu"

@H5T_init_g = external global i8, align 1
@H5_libterm_g = external global i8, align 1
@H5T_native_order_g = external global i32, align 4

; Function Attrs: nounwind uwtable
define void @H5T__bit_set_d(ptr noundef %0, i64 noundef %1, i64 noundef %2, i64 noundef %3) #0 {
  %5 = alloca ptr, align 8
  %6 = alloca i64, align 8
  %7 = alloca i64, align 8
  %8 = alloca i64, align 8
  %9 = alloca i64, align 8
  %10 = alloca i64, align 8
  %11 = alloca i8, align 1
  store ptr %0, ptr %5, align 8, !tbaa !3
  store i64 %1, ptr %6, align 8, !tbaa !8
  store i64 %2, ptr %7, align 8, !tbaa !8
  store i64 %3, ptr %8, align 8, !tbaa !8
  call void @llvm.lifetime.start.p0(i64 8, ptr %9) #4
  call void @llvm.lifetime.start.p0(i64 8, ptr %10) #4
  %12 = load i8, ptr @H5T_init_g, align 1, !tbaa !10, !range !12, !noundef !13
  %13 = trunc i8 %12 to i1
  br i1 %13, label %18, label %14

14:                                               ; preds = %4
  %15 = load i8, ptr @H5_libterm_g, align 1, !tbaa !10, !range !12, !noundef !13
  %16 = trunc i8 %15 to i1
  %17 = xor i1 %16, true
  br label %18

18:                                               ; preds = %14, %4
  %19 = phi i1 [ true, %4 ], [ %17, %14 ]
  %20 = xor i1 %19, true
  %21 = xor i1 %20, true
  %22 = zext i1 %21 to i32
  %23 = sext i32 %22 to i64
  %24 = call i64 @llvm.expect.i64(i64 %23, i64 1)
  %25 = icmp ne i64 %24, 0
  br i1 %25, label %26, label %59

26:                                               ; preds = %18
  %27 = load i32, ptr @H5T_native_order_g, align 4, !tbaa !21
  switch i32 %27, label %54 [
    i32 0, label %55
    i32 1, label %28
    i32 -1, label %53
    i32 2, label %53
    i32 4, label %53
    i32 3, label %53
  ]

28:                                               ; preds = %26
  store i64 0, ptr %9, align 8, !tbaa !8
  store i64 4, ptr %10, align 8, !tbaa !8
  br label %29

29:                                               ; preds = %49, %28
  %30 = load i64, ptr %9, align 8, !tbaa !8
  %31 = load i64, ptr %10, align 8, !tbaa !8
  %32 = icmp ult i64 %30, %31
  br i1 %32, label %33, label %52

33:                                               ; preds = %29
  call void @llvm.lifetime.start.p0(i64 1, ptr %11) #4
  %34 = load i64, ptr %9, align 8, !tbaa !8
  %35 = getelementptr inbounds nuw i8, ptr %8, i64 %34
  %36 = load i8, ptr %35, align 1, !tbaa !14
  store i8 %36, ptr %11, align 1, !tbaa !14
  %37 = load i64, ptr %9, align 8, !tbaa !8
  %38 = add i64 %37, 1
  %39 = sub i64 8, %38
  %40 = getelementptr inbounds nuw i8, ptr %8, i64 %39
  %41 = load i8, ptr %40, align 1, !tbaa !14
  %42 = load i64, ptr %9, align 8, !tbaa !8
  %43 = getelementptr inbounds nuw i8, ptr %8, i64 %42
  store i8 %41, ptr %43, align 1, !tbaa !14
  %44 = load i8, ptr %11, align 1, !tbaa !14
  %45 = load i64, ptr %9, align 8, !tbaa !8
  %46 = add i64 %45, 1
  %47 = sub i64 8, %46
  %48 = getelementptr inbounds nuw i8, ptr %8, i64 %47
  store i8 %44, ptr %48, align 1, !tbaa !14
  call void @llvm.lifetime.end.p0(i64 1, ptr %11) #4
  br label %49

49:                                               ; preds = %33
  %50 = load i64, ptr %9, align 8, !tbaa !8
  %51 = add i64 %50, 1
  store i64 %51, ptr %9, align 8, !tbaa !8
  br label %29, !llvm.loop !25

52:                                               ; preds = %29
  br label %55

53:                                               ; preds = %26, %26, %26, %26
  br label %54

54:                                               ; preds = %26, %53
  br label %55

55:                                               ; preds = %54, %52, %26
  %56 = load ptr, ptr %5, align 8, !tbaa !3
  %57 = load i64, ptr %6, align 8, !tbaa !8
  %58 = load i64, ptr %7, align 8, !tbaa !8
  call void @H5T__bit_copy(ptr noundef %56, i64 noundef %57, ptr noundef %8, i64 noundef 0, i64 noundef %58)
  br label %59

59:                                               ; preds = %55, %18
  call void @llvm.lifetime.end.p0(i64 8, ptr %10) #4
  call void @llvm.lifetime.end.p0(i64 8, ptr %9) #4
  ret void
}