; Function Attrs: nofree norecurse nosync nounwind memory(read, argmem: readwrite, inaccessiblemem: none) uwtable
define void @H5T__bit_set_d(ptr noundef captures(none) %0, i64 noundef %1, i64 noundef %2, i64 noundef %3) local_unnamed_addr #0 {
  %5 = alloca i64, align 8
  store i64 %3, ptr %5, align 8, !tbaa !16
  %6 = load i8, ptr @H5T_init_g, align 1, !tbaa !3, !range !7, !noundef !8
  %7 = trunc nuw i8 %6 to i1
  %8 = load i8, ptr @H5_libterm_g, align 1, !range !7
  %9 = trunc nuw i8 %8 to i1
  %10 = xor i1 %9, true
  %11 = select i1 %7, i1 true, i1 %10
  br i1 %11, label %12, label %20, !prof !9

12:                                               ; preds = %4
  %13 = load i32, ptr @H5T_native_order_g, align 4, !tbaa !19
  %cond = icmp eq i32 %13, 1
  br i1 %cond, label %.preheader, label %.loopexit

.preheader:                                       ; preds = %12, %.preheader
  %.010 = phi i64 [ %16, %.preheader ], [ 0, %12 ]
  %14 = getelementptr inbounds nuw i8, ptr %5, i64 %.010
  %15 = load i8, ptr %14, align 1, !tbaa !10
  %16 = add nuw nsw i64 %.010, 1
  %17 = sub nuw nsw i64 7, %.010
  %18 = getelementptr inbounds nuw i8, ptr %5, i64 %17
  %19 = load i8, ptr %18, align 1, !tbaa !10
  store i8 %19, ptr %14, align 1, !tbaa !10
  store i8 %15, ptr %18, align 1, !tbaa !10
  %exitcond.not = icmp eq i64 %16, 4
  br i1 %exitcond.not, label %.loopexit, label %.preheader, !llvm.loop !22

.loopexit:                                        ; preds = %.preheader, %12
  call void @H5T__bit_copy(ptr noundef %0, i64 noundef %1, ptr noundef nonnull %5, i64 noundef 0, i64 noundef %2)
  br label %20

20:                                               ; preds = %.loopexit, %4
  ret void
}